#include <math.h>
#include <stdio.h>
#include <stdlib.h>
#include <string.h>

int main()
{
	char a[50],b[50];
	int len1,i=0,p=0,j,k=0;
	scanf("%s %s",a,b);
	len1=strlen(a);
do
		if(a[i]==b[p])
		{
			i++;
			p++;
		
		}
		else
			if(a[i]!=b[p])
		{
			k++;
			p=k;
			i=0;
			
		}
			while(i<len1);
	j=k;
	printf("%d",j);
	return 0;
}